target datalayout = "e-m:e-p270:32:32-p271:32:32-p272:64:64-i64:64-i128:128-f80:128-n8:16:32:64-S128"
target triple = "x86_64-pc-linux-gnu"

%"struct.faiss::PermutationObjective.base" = type <{ ptr, i32 }>
%"class.std::vector.3" = type { %"struct.std::_Vector_base.4" }
%"struct.std::_Vector_base.4" = type { %"struct.std::_Vector_base<double, std::allocator<double>>::_Vector_impl" }
%"struct.std::_Vector_base<double, std::allocator<double>>::_Vector_impl" = type { %"struct.std::_Vector_base<double, std::allocator<double>>::_Vector_impl_data" }
%"struct.std::_Vector_base<double, std::allocator<double>>::_Vector_impl_data" = type { ptr, ptr, ptr }
%"struct.faiss::(anonymous namespace)::ReproduceWithHammingObjective" = type { %"struct.faiss::PermutationObjective.base", i32, double, %"class.std::vector.3", %"class.std::vector.3" }

; Function Attrs: mustprogress nounwind uwtable
define linkonce_odr void @_ZNSt15__new_allocatorIdE10deallocateEPdm(ptr noundef nonnull align 1 dereferenceable(1) %0, ptr noundef %1, i64 noundef %2) #1 comdat align 2 {
  %4 = alloca ptr, align 8
  %5 = alloca ptr, align 8
  %6 = alloca i64, align 8
  store ptr %0, ptr %4, align 8, !tbaa !127
  store ptr %1, ptr %5, align 8, !tbaa !115
  store i64 %2, ptr %6, align 8, !tbaa !41
  %7 = load ptr, ptr %5, align 8, !tbaa !115
  %8 = load i64, ptr %6, align 8, !tbaa !41
  %9 = mul i64 %8, 8
  call void @_ZdlPvm(ptr noundef %7, i64 noundef %9) #20
  ret void
}

; Function Attrs: mustprogress uwtable
define linkonce_odr void @_ZNSt16allocator_traitsISaIdEE10deallocateERS0_Pdm(ptr noundef nonnull align 1 dereferenceable(1) %0, ptr noundef %1, i64 noundef %2) #0 comdat align 2 {
  %4 = alloca ptr, align 8
  %5 = alloca ptr, align 8
  %6 = alloca i64, align 8
  store ptr %0, ptr %4, align 8, !tbaa !122
  store ptr %1, ptr %5, align 8, !tbaa !115
  store i64 %2, ptr %6, align 8, !tbaa !41
  %7 = load ptr, ptr %4, align 8, !tbaa !122
  %8 = load ptr, ptr %5, align 8, !tbaa !115
  %9 = load i64, ptr %6, align 8, !tbaa !41
  call void @_ZNSt15__new_allocatorIdE10deallocateEPdm(ptr noundef nonnull align 1 dereferenceable(1) %7, ptr noundef %8, i64 noundef %9)
  ret void
}

; Function Attrs: mustprogress nounwind uwtable
define linkonce_odr void @_ZNSt12_Destroy_auxILb1EE9__destroyIPdEEvT_S3_(ptr noundef %0, ptr noundef %1) #1 comdat align 2 {
  %3 = alloca ptr, align 8
  %4 = alloca ptr, align 8
  store ptr %0, ptr %3, align 8, !tbaa !115
  store ptr %1, ptr %4, align 8, !tbaa !115
  ret void
}

; Function Attrs: mustprogress nounwind uwtable
define linkonce_odr void @_ZNSt15__new_allocatorIdED2Ev(ptr noundef nonnull align 1 dereferenceable(1) %0) unnamed_addr #1 comdat align 2 {
  %2 = alloca ptr, align 8
  store ptr %0, ptr %2, align 8, !tbaa !127
  ret void
}

; Function Attrs: mustprogress uwtable
define linkonce_odr void @_ZNSt12_Vector_baseIdSaIdEE13_M_deallocateEPdm(ptr noundef nonnull align 8 dereferenceable(24) %0, ptr noundef %1, i64 noundef %2) #0 comdat align 2 {
  %4 = alloca ptr, align 8
  %5 = alloca ptr, align 8
  %6 = alloca i64, align 8
  store ptr %0, ptr %4, align 8, !tbaa !118
  store ptr %1, ptr %5, align 8, !tbaa !115
  store i64 %2, ptr %6, align 8, !tbaa !41
  %7 = load ptr, ptr %4, align 8
  %8 = load ptr, ptr %5, align 8, !tbaa !115
  %9 = icmp ne ptr %8, null
  br i1 %9, label %10, label %14

10:                                               ; preds = %3
  %11 = getelementptr inbounds nuw %"struct.std::_Vector_base.4", ptr %7, i32 0, i32 0
  %12 = load ptr, ptr %5, align 8, !tbaa !115
  %13 = load i64, ptr %6, align 8, !tbaa !41
  call void @_ZNSt16allocator_traitsISaIdEE10deallocateERS0_Pdm(ptr noundef nonnull align 1 dereferenceable(1) %11, ptr noundef %12, i64 noundef %13)
  br label %14

14:                                               ; preds = %10, %3
  ret void
}

; Function Attrs: inlinehint mustprogress uwtable
define linkonce_odr void @_ZSt8_DestroyIPdEvT_S1_(ptr noundef %0, ptr noundef %1) #8 comdat {
  %3 = alloca ptr, align 8
  %4 = alloca ptr, align 8
  store ptr %0, ptr %3, align 8, !tbaa !115
  store ptr %1, ptr %4, align 8, !tbaa !115
  %5 = load ptr, ptr %3, align 8, !tbaa !115
  %6 = load ptr, ptr %4, align 8, !tbaa !115
  call void @_ZNSt12_Destroy_auxILb1EE9__destroyIPdEEvT_S3_(ptr noundef %5, ptr noundef %6)
  ret void
}

; Function Attrs: noinline noreturn nounwind uwtable
define linkonce_odr hidden void @__clang_call_terminate(ptr noundef %0) #5 comdat {
  %2 = call ptr @__cxa_begin_catch(ptr %0) #16
  call void @_ZSt9terminatev() #19
  unreachable
}

; Function Attrs: mustprogress nounwind uwtable
define linkonce_odr void @_ZNSt12_Vector_baseIdSaIdEED2Ev(ptr noundef nonnull align 8 dereferenceable(24) %0) unnamed_addr #1 comdat align 2 personality ptr @__gxx_personality_v0 {
  %2 = alloca ptr, align 8
  store ptr %0, ptr %2, align 8, !tbaa !118
  %3 = load ptr, ptr %2, align 8
  %4 = getelementptr inbounds nuw %"struct.std::_Vector_base.4", ptr %3, i32 0, i32 0
  %5 = getelementptr inbounds nuw %"struct.std::_Vector_base<double, std::allocator<double>>::_Vector_impl_data", ptr %4, i32 0, i32 0
  %6 = load ptr, ptr %5, align 8, !tbaa !114
  %7 = getelementptr inbounds nuw %"struct.std::_Vector_base.4", ptr %3, i32 0, i32 0
  %8 = getelementptr inbounds nuw %"struct.std::_Vector_base<double, std::allocator<double>>::_Vector_impl_data", ptr %7, i32 0, i32 2
  %9 = load ptr, ptr %8, align 8, !tbaa !126
  %10 = getelementptr inbounds nuw %"struct.std::_Vector_base.4", ptr %3, i32 0, i32 0
  %11 = getelementptr inbounds nuw %"struct.std::_Vector_base<double, std::allocator<double>>::_Vector_impl_data", ptr %10, i32 0, i32 0
  %12 = load ptr, ptr %11, align 8, !tbaa !114
  %13 = ptrtoint ptr %9 to i64
  %14 = ptrtoint ptr %12 to i64
  %15 = sub i64 %13, %14
  %16 = sdiv exact i64 %15, 8
  invoke void @_ZNSt12_Vector_baseIdSaIdEE13_M_deallocateEPdm(ptr noundef nonnull align 8 dereferenceable(24) %3, ptr noundef %6, i64 noundef %16)
          to label %17 unwind label %19

17:                                               ; preds = %1
  %18 = getelementptr inbounds nuw %"struct.std::_Vector_base.4", ptr %3, i32 0, i32 0
  call void @_ZNSt15__new_allocatorIdED2Ev(ptr noundef nonnull align 8 dereferenceable(24) %18) #16
  ret void

19:                                               ; preds = %1
  %20 = landingpad { ptr, i32 }
          catch ptr null
  %21 = extractvalue { ptr, i32 } %20, 0
  call void @__clang_call_terminate(ptr %21) #19
  unreachable
}

; Function Attrs: inlinehint mustprogress uwtable
define linkonce_odr void @_ZSt8_DestroyIPddEvT_S1_RSaIT0_E(ptr noundef %0, ptr noundef %1, ptr noundef nonnull align 1 dereferenceable(1) %2) #8 comdat {
  %4 = alloca ptr, align 8
  %5 = alloca ptr, align 8
  %6 = alloca ptr, align 8
  store ptr %0, ptr %4, align 8, !tbaa !115
  store ptr %1, ptr %5, align 8, !tbaa !115
  store ptr %2, ptr %6, align 8, !tbaa !122
  %7 = load ptr, ptr %4, align 8, !tbaa !115
  %8 = load ptr, ptr %5, align 8, !tbaa !115
  call void @_ZSt8_DestroyIPdEvT_S1_(ptr noundef %7, ptr noundef %8)
  ret void
}

; Function Attrs: mustprogress nounwind uwtable
define linkonce_odr noundef nonnull align 1 dereferenceable(1) ptr @_ZNSt12_Vector_baseIdSaIdEE19_M_get_Tp_allocatorEv(ptr noundef nonnull align 8 dereferenceable(24) %0) #1 comdat align 2 {
  %2 = alloca ptr, align 8
  store ptr %0, ptr %2, align 8, !tbaa !118
  %3 = load ptr, ptr %2, align 8
  %4 = getelementptr inbounds nuw %"struct.std::_Vector_base.4", ptr %3, i32 0, i32 0
  ret ptr %4
}

; Function Attrs: mustprogress nounwind uwtable
define linkonce_odr void @_ZN5faiss20PermutationObjectiveD2Ev(ptr noundef nonnull align 8 dereferenceable(12) %0) unnamed_addr #1 comdat align 2 {
  %2 = alloca ptr, align 8
  store ptr %0, ptr %2, align 8, !tbaa !4
  ret void
}

; Function Attrs: mustprogress nounwind uwtable
define linkonce_odr void @_ZNSt6vectorIdSaIdEED2Ev(ptr noundef nonnull align 8 dereferenceable(24) %0) unnamed_addr #1 comdat align 2 personality ptr @__gxx_personality_v0 {
  %2 = alloca ptr, align 8
  store ptr %0, ptr %2, align 8, !tbaa !112
  %3 = load ptr, ptr %2, align 8
  %4 = getelementptr inbounds nuw %"struct.std::_Vector_base.4", ptr %3, i32 0, i32 0
  %5 = getelementptr inbounds nuw %"struct.std::_Vector_base<double, std::allocator<double>>::_Vector_impl_data", ptr %4, i32 0, i32 0
  %6 = load ptr, ptr %5, align 8, !tbaa !114
  %7 = getelementptr inbounds nuw %"struct.std::_Vector_base.4", ptr %3, i32 0, i32 0
  %8 = getelementptr inbounds nuw %"struct.std::_Vector_base<double, std::allocator<double>>::_Vector_impl_data", ptr %7, i32 0, i32 1
  %9 = load ptr, ptr %8, align 8, !tbaa !117
  %10 = call noundef nonnull align 1 dereferenceable(1) ptr @_ZNSt12_Vector_baseIdSaIdEE19_M_get_Tp_allocatorEv(ptr noundef nonnull align 8 dereferenceable(24) %3) #16
  invoke void @_ZSt8_DestroyIPddEvT_S1_RSaIT0_E(ptr noundef %6, ptr noundef %9, ptr noundef nonnull align 1 dereferenceable(1) %10)
          to label %11 unwind label %12

11:                                               ; preds = %1
  call void @_ZNSt12_Vector_baseIdSaIdEED2Ev(ptr noundef nonnull align 8 dereferenceable(24) %3) #16
  ret void

12:                                               ; preds = %1
  %13 = landingpad { ptr, i32 }
          catch ptr null
  %14 = extractvalue { ptr, i32 } %13, 0
  call void @__clang_call_terminate(ptr %14) #19
  unreachable
}

; Function Attrs: mustprogress nounwind uwtable
define internal void @_ZN5faiss12_GLOBAL__N_129ReproduceWithHammingObjectiveD2Ev(ptr noundef nonnull align 8 dereferenceable(72) %0) unnamed_addr #1 align 2 {
  %2 = alloca ptr, align 8
  store ptr %0, ptr %2, align 8, !tbaa !162
  %3 = load ptr, ptr %2, align 8
  store ptr getelementptr inbounds inrange(-16, 32) ({ [6 x ptr] }, ptr @_ZTVN5faiss12_GLOBAL__N_129ReproduceWithHammingObjectiveE, i32 0, i32 0, i32 2), ptr %3, align 8, !tbaa !13
  %4 = getelementptr inbounds nuw %"struct.faiss::(anonymous namespace)::ReproduceWithHammingObjective", ptr %3, i32 0, i32 4
  call void @_ZNSt6vectorIdSaIdEED2Ev(ptr noundef nonnull align 8 dereferenceable(24) %4) #16
  %5 = getelementptr inbounds nuw %"struct.faiss::(anonymous namespace)::ReproduceWithHammingObjective", ptr %3, i32 0, i32 3
  call void @_ZNSt6vectorIdSaIdEED2Ev(ptr noundef nonnull align 8 dereferenceable(24) %5) #16
  call void @_ZN5faiss20PermutationObjectiveD2Ev(ptr noundef nonnull align 8 dereferenceable(12) %3) #16
  ret void
}

; Function Attrs: mustprogress nounwind uwtable
define internal void @_ZN5faiss12_GLOBAL__N_129ReproduceWithHammingObjectiveD0Ev(ptr noundef nonnull align 8 dereferenceable(72) %0) unnamed_addr #1 align 2 {
  %2 = alloca ptr, align 8
  store ptr %0, ptr %2, align 8, !tbaa !162
  %3 = load ptr, ptr %2, align 8
  call void @_ZN5faiss12_GLOBAL__N_129ReproduceWithHammingObjectiveD2Ev(ptr noundef nonnull align 8 dereferenceable(72) %3) #16
  call void @_ZdlPvm(ptr noundef %3, i64 noundef 72) #20
  ret void
}