; Function Attrs: mustprogress nounwind uwtable
define internal void @_ZN5faiss12_GLOBAL__N_129ReproduceWithHammingObjectiveD0Ev(ptr noundef nonnull align 8 dereferenceable(72) initializes((0, 8)) %0) unnamed_addr #1 align 2 personality ptr @__gxx_personality_v0 {
  store ptr getelementptr inbounds nuw inrange(-16, 32) (i8, ptr @_ZTVN5faiss12_GLOBAL__N_129ReproduceWithHammingObjectiveE, i64 16), ptr %0, align 8, !tbaa !4
  %2 = getelementptr inbounds nuw i8, ptr %0, i64 48
  %3 = load ptr, ptr %2, align 8, !tbaa !20
  %.not.i.i.i.i = icmp eq ptr %3, null
  br i1 %.not.i.i.i.i, label %_ZNSt6vectorIdSaIdEED2Ev.exit.i, label %4

4:                                                ; preds = %1
  %5 = getelementptr inbounds nuw i8, ptr %0, i64 64
  %6 = load ptr, ptr %5, align 8, !tbaa !24
  %7 = ptrtoint ptr %6 to i64
  %8 = ptrtoint ptr %3 to i64
  %9 = sub i64 %7, %8
  tail call void @_ZdlPvm(ptr noundef nonnull %3, i64 noundef %9) #30
  br label %_ZNSt6vectorIdSaIdEED2Ev.exit.i

_ZNSt6vectorIdSaIdEED2Ev.exit.i:                  ; preds = %4, %1
  %10 = getelementptr inbounds nuw i8, ptr %0, i64 24
  %11 = load ptr, ptr %10, align 8, !tbaa !20
  %.not.i.i.i1.i = icmp eq ptr %11, null
  br i1 %.not.i.i.i1.i, label %_ZN5faiss12_GLOBAL__N_129ReproduceWithHammingObjectiveD2Ev.exit, label %12

12:                                               ; preds = %_ZNSt6vectorIdSaIdEED2Ev.exit.i
  %13 = getelementptr inbounds nuw i8, ptr %0, i64 40
  %14 = load ptr, ptr %13, align 8, !tbaa !24
  %15 = ptrtoint ptr %14 to i64
  %16 = ptrtoint ptr %11 to i64
  %17 = sub i64 %15, %16
  tail call void @_ZdlPvm(ptr noundef nonnull %11, i64 noundef %17) #30
  br label %_ZN5faiss12_GLOBAL__N_129ReproduceWithHammingObjectiveD2Ev.exit

_ZN5faiss12_GLOBAL__N_129ReproduceWithHammingObjectiveD2Ev.exit: ; preds = %_ZNSt6vectorIdSaIdEED2Ev.exit.i, %12
  tail call void @_ZdlPvm(ptr noundef nonnull %0, i64 noundef 72) #30
  ret void
}